target datalayout = "e-m:e-p270:32:32-p271:32:32-p272:64:64-i64:64-i128:128-f80:128-n8:16:32:64-S128"
target triple = "x86_64-pc-linux-gnu"

%struct.BSDF_TRaster_ = type { ptr }

; Function Attrs: nounwind uwtable
define internal i32 @bsdf_raster_new(ptr noundef %0, ptr noundef %1) #0 {
  %3 = alloca ptr, align 8
  %4 = alloca ptr, align 8
  %5 = alloca ptr, align 8
  %6 = alloca ptr, align 8
  %7 = alloca i32, align 4
  %8 = alloca ptr, align 8
  store ptr %0, ptr %3, align 8, !tbaa !85
  store ptr %1, ptr %4, align 8, !tbaa !96
  call void @llvm.lifetime.start.p0(i64 8, ptr %5) #7
  %9 = load ptr, ptr %3, align 8, !tbaa !85
  store ptr %9, ptr %5, align 8, !tbaa !38
  call void @llvm.lifetime.start.p0(i64 8, ptr %6) #7
  %10 = load ptr, ptr %4, align 8, !tbaa !96
  store ptr %10, ptr %6, align 8, !tbaa !98
  call void @llvm.lifetime.start.p0(i64 4, ptr %7) #7
  call void @llvm.lifetime.start.p0(i64 8, ptr %8) #7
  store ptr null, ptr %8, align 8, !tbaa !100
  %11 = load ptr, ptr %5, align 8, !tbaa !38
  %12 = call ptr @ft_mem_alloc(ptr noundef %11, i64 noundef 8, ptr noundef %7)
  store ptr %12, ptr %8, align 8, !tbaa !100
  %13 = load i32, ptr %7, align 4, !tbaa !31
  %14 = icmp ne i32 %13, 0
  br i1 %14, label %19, label %15

15:                                               ; preds = %2
  %16 = load ptr, ptr %5, align 8, !tbaa !38
  %17 = load ptr, ptr %8, align 8, !tbaa !100
  %18 = getelementptr inbounds nuw %struct.BSDF_TRaster_, ptr %17, i32 0, i32 0
  store ptr %16, ptr %18, align 8, !tbaa !102
  br label %19

19:                                               ; preds = %15, %2
  %20 = load ptr, ptr %8, align 8, !tbaa !100
  %21 = load ptr, ptr %6, align 8, !tbaa !98
  store ptr %20, ptr %21, align 8, !tbaa !100
  %22 = load i32, ptr %7, align 4, !tbaa !31
  call void @llvm.lifetime.end.p0(i64 8, ptr %8) #7
  call void @llvm.lifetime.end.p0(i64 4, ptr %7) #7
  call void @llvm.lifetime.end.p0(i64 8, ptr %6) #7
  call void @llvm.lifetime.end.p0(i64 8, ptr %5) #7
  ret i32 %22
}