; Function Attrs: nounwind uwtable
define internal i32 @bsdf_raster_new(ptr noundef %0, ptr noundef writeonly captures(none) initializes((0, 8)) %1) #2 {
  %3 = alloca i32, align 4
  call void @llvm.lifetime.start.p0(i64 4, ptr nonnull %3) #11
  %4 = call ptr @ft_mem_alloc(ptr noundef %0, i64 noundef 8, ptr noundef nonnull %3) #11
  %5 = load i32, ptr %3, align 4, !tbaa !21
  %.not = icmp eq i32 %5, 0
  br i1 %.not, label %6, label %7

6:                                                ; preds = %2
  store ptr %0, ptr %4, align 8, !tbaa !79
  br label %7

7:                                                ; preds = %6, %2
  store ptr %4, ptr %1, align 8, !tbaa !81
  call void @llvm.lifetime.end.p0(i64 4, ptr nonnull %3) #11
  ret i32 %5
}